; Function Attrs: mustprogress uwtable
define void @_ZN15MainApplication26setLastOpenDirFromFilenameE7QString(ptr nocapture noundef nonnull readnone align 8 dereferenceable(216) %0, ptr noundef nonnull %1) local_unnamed_addr #3 align 2 personality ptr @__gxx_personality_v0 {
  %3 = alloca %class.QString, align 8
  %4 = alloca %class.QFileInfo, align 8
  %5 = alloca %class.QByteArray, align 8
  call void @_ZN9QFileInfoC1ERK7QString(ptr noundef nonnull align 8 dereferenceable(8) %4, ptr noundef nonnull align 8 dereferenceable(24) %1)
  invoke void @_ZNK9QFileInfo12absolutePathEv(ptr dead_on_unwind nonnull writable sret(%class.QString) align 8 %3, ptr noundef nonnull align 8 dereferenceable(8) %4)
          to label %6 unwind label %19

6:                                                ; preds = %2
  call void @_ZN9QFileInfoD1Ev(ptr noundef nonnull align 8 dereferenceable(8) %4) #26
  invoke void @_ZN7QString13toUtf8_helperERKS_(ptr dead_on_unwind nonnull writable sret(%class.QByteArray) align 8 %5, ptr noundef nonnull align 8 dereferenceable(24) %3)
          to label %7 unwind label %21

7:                                                ; preds = %6
  %8 = getelementptr inbounds i8, ptr %5, i64 8
  %9 = load ptr, ptr %8, align 8
  %.not.i.i = icmp eq ptr %9, null
  %spec.select.i.i = select i1 %.not.i.i, ptr @_ZN10QByteArray6_emptyE, ptr %9
  invoke void @set_last_open_dir(ptr noundef nonnull %spec.select.i.i)
          to label %10 unwind label %23

10:                                               ; preds = %7
  %11 = load ptr, ptr %5, align 8
  %.not.i.i.i = icmp eq ptr %11, null
  br i1 %.not.i.i.i, label %_ZN10QByteArrayD2Ev.exit, label %_ZN17QArrayDataPointerIcE5derefEv.exit.i.i

_ZN17QArrayDataPointerIcE5derefEv.exit.i.i:       ; preds = %10
  %12 = atomicrmw sub ptr %11, i32 1 seq_cst, align 4
  %.not.i.i5 = icmp eq i32 %12, 1
  br i1 %.not.i.i5, label %13, label %_ZN10QByteArrayD2Ev.exit

13:                                               ; preds = %_ZN17QArrayDataPointerIcE5derefEv.exit.i.i
  %14 = load ptr, ptr %5, align 8
  call void @_ZN10QArrayData10deallocateEPS_xx(ptr noundef %14, i64 noundef 1, i64 noundef 8) #26
  br label %_ZN10QByteArrayD2Ev.exit

_ZN10QByteArrayD2Ev.exit:                         ; preds = %10, %_ZN17QArrayDataPointerIcE5derefEv.exit.i.i, %13
  %15 = load ptr, ptr %3, align 8
  %.not.i.i.i6 = icmp eq ptr %15, null
  br i1 %.not.i.i.i6, label %_ZN7QStringD2Ev.exit, label %_ZN17QArrayDataPointerIDsE5derefEv.exit.i.i

_ZN17QArrayDataPointerIDsE5derefEv.exit.i.i:      ; preds = %_ZN10QByteArrayD2Ev.exit
  %16 = atomicrmw sub ptr %15, i32 1 seq_cst, align 4
  %.not.i.i7 = icmp eq i32 %16, 1
  br i1 %.not.i.i7, label %17, label %_ZN7QStringD2Ev.exit

17:                                               ; preds = %_ZN17QArrayDataPointerIDsE5derefEv.exit.i.i
  %18 = load ptr, ptr %3, align 8
  call void @_ZN10QArrayData10deallocateEPS_xx(ptr noundef %18, i64 noundef 2, i64 noundef 8) #26
  br label %_ZN7QStringD2Ev.exit

_ZN7QStringD2Ev.exit:                             ; preds = %_ZN10QByteArrayD2Ev.exit, %_ZN17QArrayDataPointerIDsE5derefEv.exit.i.i, %17
  ret void

19:                                               ; preds = %2
  %20 = landingpad { ptr, i32 }
          cleanup
  call void @_ZN9QFileInfoD1Ev(ptr noundef nonnull align 8 dereferenceable(8) %4) #26
  br label %_ZN7QStringD2Ev.exit15

21:                                               ; preds = %6
  %22 = landingpad { ptr, i32 }
          cleanup
  br label %_ZN10QByteArrayD2Ev.exit11

23:                                               ; preds = %7
  %24 = landingpad { ptr, i32 }
          cleanup
  %25 = load ptr, ptr %5, align 8
  %.not.i.i.i8 = icmp eq ptr %25, null
  br i1 %.not.i.i.i8, label %_ZN10QByteArrayD2Ev.exit11, label %_ZN17QArrayDataPointerIcE5derefEv.exit.i.i9

_ZN17QArrayDataPointerIcE5derefEv.exit.i.i9:      ; preds = %23
  %26 = atomicrmw sub ptr %25, i32 1 seq_cst, align 4
  %.not.i.i10 = icmp eq i32 %26, 1
  br i1 %.not.i.i10, label %27, label %_ZN10QByteArrayD2Ev.exit11

27:                                               ; preds = %_ZN17QArrayDataPointerIcE5derefEv.exit.i.i9
  %28 = load ptr, ptr %5, align 8
  call void @_ZN10QArrayData10deallocateEPS_xx(ptr noundef %28, i64 noundef 1, i64 noundef 8) #26
  br label %_ZN10QByteArrayD2Ev.exit11

_ZN10QByteArrayD2Ev.exit11:                       ; preds = %27, %_ZN17QArrayDataPointerIcE5derefEv.exit.i.i9, %23, %21
  %.pn = phi { ptr, i32 } [ %22, %21 ], [ %24, %23 ], [ %24, %_ZN17QArrayDataPointerIcE5derefEv.exit.i.i9 ], [ %24, %27 ]
  %29 = load ptr, ptr %3, align 8
  %.not.i.i.i12 = icmp eq ptr %29, null
  br i1 %.not.i.i.i12, label %_ZN7QStringD2Ev.exit15, label %_ZN17QArrayDataPointerIDsE5derefEv.exit.i.i13

_ZN17QArrayDataPointerIDsE5derefEv.exit.i.i13:    ; preds = %_ZN10QByteArrayD2Ev.exit11
  %30 = atomicrmw sub ptr %29, i32 1 seq_cst, align 4
  %.not.i.i14 = icmp eq i32 %30, 1
  br i1 %.not.i.i14, label %31, label %_ZN7QStringD2Ev.exit15

31:                                               ; preds = %_ZN17QArrayDataPointerIDsE5derefEv.exit.i.i13
  %32 = load ptr, ptr %3, align 8
  call void @_ZN10QArrayData10deallocateEPS_xx(ptr noundef %32, i64 noundef 2, i64 noundef 8) #26
  br label %_ZN7QStringD2Ev.exit15

_ZN7QStringD2Ev.exit15:                           ; preds = %31, %_ZN17QArrayDataPointerIDsE5derefEv.exit.i.i13, %_ZN10QByteArrayD2Ev.exit11, %19
  %.pn.pn = phi { ptr, i32 } [ %20, %19 ], [ %.pn, %_ZN10QByteArrayD2Ev.exit11 ], [ %.pn, %_ZN17QArrayDataPointerIDsE5derefEv.exit.i.i13 ], [ %.pn, %31 ]
  resume { ptr, i32 } %.pn.pn
}